; Function Attrs: nofree norecurse nounwind uwtable
define i64 @PaUtil_ReadRingBuffer(ptr noundef %0, ptr noundef writeonly captures(none) %1, i64 noundef %2) local_unnamed_addr #3 {
  %4 = getelementptr inbounds nuw i8, ptr %0, i64 8
  %5 = load volatile i64, ptr %4, align 8, !tbaa !12
  %6 = getelementptr inbounds nuw i8, ptr %0, i64 16
  %7 = load volatile i64, ptr %6, align 8, !tbaa !11
  %8 = sub nsw i64 %5, %7
  %9 = getelementptr inbounds nuw i8, ptr %0, i64 24
  %10 = load i64, ptr %9, align 8, !tbaa !13
  %11 = and i64 %8, %10
  %spec.select.i = tail call i64 @llvm.smin.i64(i64 %2, i64 %11)
  %12 = load volatile i64, ptr %6, align 8, !tbaa !11
  %13 = getelementptr inbounds nuw i8, ptr %0, i64 32
  %14 = load i64, ptr %13, align 8, !tbaa !14
  %15 = and i64 %14, %12
  %16 = add nsw i64 %15, %spec.select.i
  %17 = load i64, ptr %0, align 8, !tbaa !3
  %18 = icmp sgt i64 %16, %17
  br i1 %18, label %19, label %28

19:                                               ; preds = %3
  %20 = sub nsw i64 %17, %15
  %21 = getelementptr inbounds nuw i8, ptr %0, i64 48
  %22 = load ptr, ptr %21, align 8, !tbaa !10
  %23 = getelementptr inbounds nuw i8, ptr %0, i64 40
  %24 = load i64, ptr %23, align 8, !tbaa !15
  %25 = mul nsw i64 %24, %15
  %26 = getelementptr inbounds i8, ptr %22, i64 %25
  %27 = sub nsw i64 %spec.select.i, %20
  br label %35

28:                                               ; preds = %3
  %29 = getelementptr inbounds nuw i8, ptr %0, i64 48
  %30 = load ptr, ptr %29, align 8, !tbaa !10
  %31 = getelementptr inbounds nuw i8, ptr %0, i64 40
  %32 = load i64, ptr %31, align 8, !tbaa !15
  %33 = mul nsw i64 %32, %15
  %34 = getelementptr inbounds i8, ptr %30, i64 %33
  br label %35

35:                                               ; preds = %28, %19
  %.0 = phi ptr [ %26, %19 ], [ %34, %28 ]
  %spec.select.sink.i = phi i64 [ %20, %19 ], [ %spec.select.i, %28 ]
  %.sink.i = phi ptr [ %22, %19 ], [ null, %28 ]
  %storemerge.i = phi i64 [ %27, %19 ], [ 0, %28 ]
  %.not.i = icmp eq i64 %11, 0
  br i1 %.not.i, label %PaUtil_GetRingBufferReadRegions.exit, label %36

36:                                               ; preds = %35
  fence seq_cst
  br label %PaUtil_GetRingBufferReadRegions.exit

PaUtil_GetRingBufferReadRegions.exit:             ; preds = %35, %36
  %37 = icmp sgt i64 %storemerge.i, 0
  %38 = getelementptr inbounds nuw i8, ptr %0, i64 40
  %39 = load i64, ptr %38, align 8, !tbaa !15
  %40 = mul nsw i64 %39, %spec.select.sink.i
  tail call void @llvm.memcpy.p0.p0.i64(ptr align 1 %1, ptr align 1 %.0, i64 %40, i1 false)
  br i1 %37, label %41, label %46

41:                                               ; preds = %PaUtil_GetRingBufferReadRegions.exit
  %42 = load i64, ptr %38, align 8, !tbaa !15
  %43 = mul nsw i64 %42, %spec.select.sink.i
  %44 = getelementptr inbounds i8, ptr %1, i64 %43
  %45 = mul nsw i64 %42, %storemerge.i
  tail call void @llvm.memcpy.p0.p0.i64(ptr align 1 %44, ptr align 1 %.sink.i, i64 %45, i1 false)
  br label %46

46:                                               ; preds = %PaUtil_GetRingBufferReadRegions.exit, %41
  fence seq_cst
  %47 = load volatile i64, ptr %6, align 8, !tbaa !11
  %48 = add nsw i64 %47, %spec.select.i
  %49 = load i64, ptr %9, align 8, !tbaa !13
  %50 = and i64 %48, %49
  store volatile i64 %50, ptr %6, align 8, !tbaa !11
  ret i64 %spec.select.i
}